; Function Attrs: mustprogress nofree norecurse nosync nounwind willreturn memory(argmem: readwrite) uwtable
define dso_local void @_ZN10btSoftBody15RayFromToCasterC2ERK9btVector3S3_f(ptr nocapture noundef nonnull writeonly align 8 dereferenceable(76) %this, ptr nocapture noundef nonnull readonly align 4 dereferenceable(16) %rayFrom, ptr nocapture noundef nonnull readonly align 4 dereferenceable(16) %rayTo, float noundef %mxt) unnamed_addr #23 align 2 personality ptr @__gxx_personality_v0 {
invoke.cont5:
  store ptr getelementptr inbounds ({ [10 x ptr] }, ptr @_ZTVN10btSoftBody15RayFromToCasterE, i64 0, i32 0, i64 2), ptr %this, align 8
  %m_rayFrom = getelementptr inbounds i8, ptr %this, i64 8
  %m_rayTo = getelementptr inbounds i8, ptr %this, i64 24
  %m_rayNormalizedDirection = getelementptr inbounds i8, ptr %this, i64 40
  tail call void @llvm.memcpy.p0.p0.i64(ptr noundef nonnull align 8 dereferenceable(16) %m_rayFrom, ptr noundef nonnull align 4 dereferenceable(16) %rayFrom, i64 16, i1 false)
  %0 = load <2 x float>, ptr %rayTo, align 4
  %1 = load <2 x float>, ptr %rayFrom, align 4
  %2 = fsub <2 x float> %0, %1
  %arrayidx11.i = getelementptr inbounds i8, ptr %rayTo, i64 8
  %3 = load float, ptr %arrayidx11.i, align 4
  %arrayidx13.i = getelementptr inbounds i8, ptr %rayFrom, i64 8
  %4 = load float, ptr %arrayidx13.i, align 4
  %sub14.i = fsub float %3, %4
  %retval.sroa.3.12.vec.insert.i = insertelement <2 x float> <float poison, float 0.000000e+00>, float %sub14.i, i64 0
  store <2 x float> %2, ptr %m_rayNormalizedDirection, align 8
  %ref.tmp.sroa.2.0.m_rayNormalizedDirection6.sroa_idx = getelementptr inbounds i8, ptr %this, i64 48
  store <2 x float> %retval.sroa.3.12.vec.insert.i, ptr %ref.tmp.sroa.2.0.m_rayNormalizedDirection6.sroa_idx, align 8
  tail call void @llvm.memcpy.p0.p0.i64(ptr noundef nonnull align 8 dereferenceable(16) %m_rayTo, ptr noundef nonnull align 4 dereferenceable(16) %rayTo, i64 16, i1 false)
  %m_mint = getelementptr inbounds i8, ptr %this, i64 56
  store float %mxt, ptr %m_mint, align 8
  %m_face = getelementptr inbounds i8, ptr %this, i64 64
  store ptr null, ptr %m_face, align 8
  %m_tests = getelementptr inbounds i8, ptr %this, i64 72
  store i32 0, ptr %m_tests, align 8
  ret void
}